; Function Attrs: nounwind uwtable
define ptr @l_Lake_BuildType_toLean___boxed(ptr noundef %0) #0 {
  %2 = ptrtoint ptr %0 to i64
  %3 = lshr i64 %2, 1
  %4 = trunc i64 %3 to i8
  %5 = and i64 %2, 1
  %.not = icmp eq i64 %5, 0
  br i1 %.not, label %6, label %lean_dec.exit

6:                                                ; preds = %1
  %7 = load i32, ptr %0, align 4, !tbaa !8
  %8 = icmp sgt i32 %7, 1
  br i1 %8, label %9, label %11, !prof !11

9:                                                ; preds = %6
  %10 = add nsw i32 %7, -1
  store i32 %10, ptr %0, align 4, !tbaa !8
  br label %lean_dec.exit

11:                                               ; preds = %6
  %.not.i = icmp eq i32 %7, 0
  br i1 %.not.i, label %lean_dec.exit, label %12

12:                                               ; preds = %11
  tail call void @lean_dec_ref_cold(ptr noundef nonnull %0) #6
  br label %lean_dec.exit

lean_dec.exit:                                    ; preds = %12, %11, %9, %1
  %13 = icmp ult i8 %4, 3
  br i1 %13, label %switch.lookup, label %l_Lake_BuildType_toLean.exit

switch.lookup:                                    ; preds = %lean_dec.exit
  %14 = and i64 %3, 3
  %switch.gep = getelementptr inbounds nuw [3 x ptr], ptr @switch.table.l_Lake_PackageConfig_mkDeclFields, i64 0, i64 %14
  %switch.load = load ptr, ptr %switch.gep, align 8
  br label %l_Lake_BuildType_toLean.exit

l_Lake_BuildType_toLean.exit:                     ; preds = %lean_dec.exit, %switch.lookup
  %.0.in.i = phi ptr [ %switch.load, %switch.lookup ], [ @l_Lake_BuildType_toLean___closed__13, %lean_dec.exit ]
  %.0.i = load ptr, ptr %.0.in.i, align 8, !tbaa !12
  ret ptr %.0.i
}